(dp0
S'05_06_0006'
p1
(lp2
(I2
I5
I330
S'L'
p3
S'A'
p4
tp5
a(I2
I29
I380
g3
g4
tp6
a(I0
I12
I25
S'R'
p7
g4
tp8
a(I2
I13
I260
g7
g4
tp9
a(I3
I17
I290
g3
S'B'
p10
tp11
a(I0
I13
I530
g7
g4
tp12
a(I3
I14
I165
g7
g4
tp13
a(I2
I6
I250
g7
g4
tp14
a(I0
I4
I90
g7
g4
tp15
a(I2
I5
I285
g3
g4
tp16
asS'05_06_0008'
p17
(lp18
(I0
I13
I280
g3
g4
tp19
a(I1
I19
I135
g3
g4
tp20
a(I1
I1
I210
g7
g4
tp21
a(I2
I0
I330
g3
g4
tp22
a(I3
I9
I120
g7
g4
tp23
a(I3
I14
I250
g3
g4
tp24
a(I2
I11
I200
g3
g4
tp25
a(I1
I14
I455
g7
g4
tp26
asS'04_16_0000'
p27
(lp28
(I2
I10
I540
g7
g4
tp29
asS'05_12_0015'
p30
(lp31
(I3
I5
I255
g3
g10
tp32
a(I3
I9
I230
g7
g10
tp33
a(I1
I12
I410
g3
g4
tp34
a(I2
I16
I200
g3
g4
tp35
asS'05_12_0016'
p36
(lp37
(I1
I2
I280
g7
g4
tp38
asS'04_22_0008'
p39
(lp40
(I1
I2
I200
g7
g10
tp41
a(I3
I2
I200
g3
g10
tp42
a(I1
I3
I130
g3
g10
tp43
a(I0
I17
I100
g3
g4
tp44
a(I1
I19
I140
g3
g4
tp45
a(I3
I10
I280
g7
g4
tp46
a(I2
I30
I440
g7
g4
tp47
asS'04_22_0009'
p48
(lp49
(I2
I11
I585
g3
g10
tp50
a(I3
I14
I445
g3
g10
tp51
asS'04_22_0005'
p52
(lp53
(I0
I6
I110
g7
g4
tp54
a(I2
I2
I160
g7
g4
tp55
a(I3
I3
I230
g3
g4
tp56
a(I0
I16
I535
g7
g4
tp57
a(I3
I16
I160
g3
g10
tp58
asS'05_12_0018'
p59
(lp60
(I1
I18
I200
g3
g10
tp61
a(I3
I19
I375
g3
g4
tp62
a(I2
I8
I460
g7
g10
tp63
a(I1
I7
I290
g3
g10
tp64
asS'03_30_0000'
p65
(lp66
(I0
I24
I300
g7
g4
tp67
a(I1
I21
I400
g3
S'C'
p68
tp69
a(I1
I30
I300
g7
g4
tp70
a(I2
I21
I400
g3
g10
tp71
a(I2
I32
I300
g7
g4
tp72
a(I3
I4
I400
g3
g4
tp73
a(I3
I6
I425
g3
g10
tp74
a(I3
I8
I200
g7
g4
tp75
a(I3
I12
I100
g7
g4
tp76
asS'03_30_0001'
p77
(lp78
(I0
I43
I325
g7
g4
tp79
a(I1
I42
I460
g3
g4
tp80
a(I2
I41
I200
g3
g4
tp81
a(I3
I2
I300
g7
g4
tp82
asS'05_08_0009'
p83
(lp84
(I0
I13
I500
g3
g4
tp85
a(I0
I8
I440
g3
g4
tp86
a(I1
I7
I325
g7
g4
tp87
a(I2
I15
I185
g7
g4
tp88
a(I1
I15
I250
g7
g4
tp89
a(I3
I9
I185
g7
g4
tp90
a(I3
I13
I415
g7
g4
tp91
a(I3
I14
I250
g3
g4
tp92
a(I3
I15
I315
g3
g4
tp93
a(I3
I18
I300
g3
g4
tp94
a(I0
I17
I175
g3
g4
tp95
a(I0
I18
I220
g3
g4
tp96
asS'05_08_0008'
p97
(lp98
(I1
I13
I215
g3
g10
tp99
a(I2
I10
I130
g3
g10
tp100
a(I1
I19
I375
g3
g10
tp101
asS'05_08_0005'
p102
(lp103
(I1
I1
I70
g3
g4
tp104
a(I3
I2
I120
g3
g4
tp105
a(I0
I11
I175
g3
g4
tp106
a(I2
I13
I475
g3
g4
tp107
a(I2
I22
I200
g7
g10
tp108
a(I0
I28
I220
g3
g4
tp109
a(I0
I32
I240
g3
g4
tp110
asS'05_08_0004'
p111
(lp112
(I0
I4
I460
g7
g10
tp113
a(I3
I17
I430
g7
g10
tp114
a(I2
I15
I200
g3
g10
tp115
a(I0
I12
I400
g7
g10
tp116
a(I1
I11
I280
g3
g10
tp117
a(I1
I11
I410
g3
g4
tp118
a(I1
I1
I420
g3
g4
tp119
asS'05_08_0006'
p120
(lp121
(I2
I9
I580
g3
g10
tp122
asS'05_08_0001'
p123
(lp124
(I0
I4
I40
g3
g4
tp125
a(I1
I2
I165
g3
g4
tp126
a(I3
I16
I260
g3
g10
tp127
a(I0
I15
I280
g7
g4
tp128
a(I3
I2
I400
g3
g10
tp129
a(I1
I16
I415
g3
g4
tp130
asS'05_08_0003'
p131
(lp132
(I1
I7
I255
g7
g4
tp133
a(I2
I14
I250
g7
g4
tp134
asS'04_01_0002'
p135
(lp136
(I0
I23
I550
g3
g4
tp137
a(I1
I1
I410
g3
g4
tp138
a(I1
I10
I500
g7
g4
tp139
a(I2
I0
I380
g7
g4
tp140
a(I2
I27
I360
g3
g4
tp141
a(I3
I5
I300
g3
g4
tp142
a(I3
I10
I450
g3
g4
tp143
a(I3
I29
I480
g7
g4
tp144
asS'04_01_0001'
p145
(lp146
(I0
I9
I325
g7
g4
tp147
a(I0
I25
I550
g3
g4
tp148
a(I1
I9
I175
g3
g4
tp149
a(I1
I11
I150
g7
g4
tp150
a(I1
I24
I535
g3
g4
tp151
a(I2
I10
I500
g7
g4
tp152
asS'05_08_0011'
p153
(lp154
(I0
I2
I340
g3
g4
tp155
a(I0
I5
I530
g7
g4
tp156
a(I1
I3
I550
g7
g4
tp157
a(I1
I5
I240
g3
g4
tp158
a(I2
I2
I330
g3
g4
tp159
a(I1
I7
I460
g7
g4
tp160
a(I1
I12
I560
g7
g4
tp161
a(I2
I10
I440
g3
g4
tp162
a(I2
I11
I100
g7
g4
tp163
a(I3
I14
I145
g3
g4
tp164
a(I0
I16
I520
g3
g4
tp165
a(I1
I19
I560
g7
g4
tp166
a(I2
I17
I215
g3
g4
tp167
asS'04_22_0012'
p168
(lp169
(I1
I5
I335
g3
g4
tp170
a(I0
I9
I460
g3
g10
tp171
a(I1
I12
I185
g3
g4
tp172
a(I3
I3
I475
g7
g4
tp173
asS'04_22_0011'
p174
(lp175
(I0
I17
I100
g3
g10
tp176
a(I3
I19
I345
g7
g4
tp177
asS'04_22_0010'
p178
(lp179
(I0
I6
I100
g3
g10
tp180
a(I0
I7
I100
g3
g68
tp181
a(I0
I13
I240
g7
g10
tp182
a(I1
I2
I450
g3
g10
tp183
a(I2
I15
I330
g3
g10
tp184
a(I2
I24
I425
g7
g4
tp185
a(I1
I20
I400
g3
g4
tp186
a(I2
I20
I190
g3
g4
tp187
a(I1
I21
I500
g3
g4
tp188
a(I3
I22
I415
g3
g4
tp189
a(I0
I32
I380
g3
g4
tp190
a(I0
I34
I350
g3
g4
tp191
a(I2
I36
I500
g3
g4
tp192
a(I3
I38
I360
g3
g4
tp193
a(I1
I33
I50
g3
g10
tp194
asS'05_05_0003'
p195
(lp196
(I0
I3
I130
g3
g4
tp197
a(I1
I0
I400
g3
g4
tp198
a(I1
I5
I45
g3
g4
tp199
a(I2
I3
I370
g3
g4
tp200
a(I3
I3
I310
g3
g4
tp201
a(I2
I8
I310
g3
g4
tp202
a(I2
I14
I340
g7
g4
tp203
a(I2
I16
I465
g3
g4
tp204
a(I3
I14
I235
g3
g4
tp205
a(I0
I19
I175
g7
g4
tp206
a(I0
I19
I105
g7
g4
tp207
a(I2
I19
I105
g7
g4
tp208
a(I0
I13
I50
g7
g10
tp209
a(I1
I12
I60
g3
g10
tp210
a(I1
I15
I100
g3
g10
tp211
a(I1
I16
I100
g3
g10
tp212
a(I3
I18
I180
g7
g10
tp213
a(I2
I9
I50
g3
g10
tp214
a(I2
I7
I140
g3
g10
tp215
a(I1
I7
I50
g3
g10
tp216
asS'04_16_0002'
p217
(lp218
(I0
I3
I430
g7
g4
tp219
a(I0
I24
I450
g3
g10
tp220
a(I1
I10
I585
g3
g4
tp221
a(I1
I14
I125
g7
g4
tp222
a(I1
I19
I500
g3
g4
tp223
a(I1
I21
I280
g7
g10
tp224
a(I2
I17
I320
g7
g4
tp225
a(I2
I13
I485
g7
g4
tp226
a(I3
I22
I425
g7
g4
tp227
asS'05_05_0005'
p228
(lp229
(I0
I0
I230
g7
g4
tp230
a(I0
I2
I200
g7
g4
tp231
a(I0
I12
I460
g3
g4
tp232
a(I0
I16
I180
g7
g4
tp233
a(I0
I28
I60
g7
g4
tp234
a(I0
I33
I165
g7
g4
tp235
a(I1
I33
I110
g3
g4
tp236
a(I1
I30
I400
g3
g4
tp237
a(I1
I29
I190
g7
g4
tp238
a(I1
I19
I130
g3
g4
tp239
a(I1
I6
I100
g3
g4
tp240
a(I2
I4
I430
g7
g4
tp241
a(I2
I5
I310
g7
g4
tp242
a(I2
I32
I220
g3
g4
tp243
a(I2
I29
I100
g3
g4
tp244
a(I2
I32
I190
g3
g4
tp245
a(I2
I35
I225
g3
g4
tp246
a(I2
I36
I265
g7
g68
tp247
a(I3
I35
I290
g7
g68
tp248
a(I3
I33
I300
g7
g4
tp249
a(I3
I10
I75
g7
g4
tp250
a(I3
I4
I275
g3
g10
tp251
asS'05_11_0003'
p252
(lp253
(I1
I7
I290
g7
g4
tp254
a(I2
I16
I560
g3
g4
tp255
a(I3
I18
I260
g7
g4
tp256
asS'05_11_0007'
p257
(lp258
(I0
I4
I415
g7
g4
tp259
a(I2
I2
I315
g7
g4
tp260
a(I0
I3
I235
g7
g4
tp261
a(I1
I4
I415
g7
g4
tp262
a(I1
I9
I160
g7
g4
tp263
a(I3
I12
I430
g7
g4
tp264
a(I3
I13
I170
g3
g4
tp265
a(I3
I14
I200
g3
g4
tp266
a(I0
I19
I285
g7
g4
tp267
a(I3
I17
I400
g7
g4
tp268
asS'05_11_0005'
p269
(lp270
(I0
I0
I350
g3
g10
tp271
a(I0
I1
I380
g3
g10
tp272
a(I1
I3
I150
g3
g10
tp273
a(I1
I7
I250
g3
g4
tp274
a(I3
I2
I65
g3
g4
tp275
a(I3
I4
I125
g7
g4
tp276
a(I2
I5
I600
g3
g4
tp277
a(I0
I11
I260
g3
g4
tp278
a(I2
I8
I385
g3
g4
tp279
a(I3
I8
I300
g3
g4
tp280
a(I0
I14
I230
g3
g4
tp281
a(I0
I19
I400
g3
g4
tp282
a(I1
I19
I400
g3
g10
tp283
a(I2
I19
I440
g7
g10
tp284
a(I2
I21
I79
g7
g10
tp285
a(I3
I28
I80
g3
g10
tp286
a(I1
I23
I465
g7
g4
tp287
asS'05_11_0004'
p288
(lp289
(I3
I1
I350
g7
g4
tp290
a(I3
I9
I400
g3
g4
tp291
a(I0
I23
I180
g7
g4
tp292
a(I0
I28
I285
g7
g4
tp293
a(I1
I23
I210
g3
g10
tp294
asS'04_10_0005'
p295
(lp296
(I0
I1
I200
g3
g4
tp297
a(I0
I9
I380
g7
g4
tp298
a(I0
I11
I200
g7
g4
tp299
a(I2
I11
I115
g3
g4
tp300
a(I3
I4
I500
g7
g4
tp301
a(I3
I3
I475
g7
g10
tp302
a(I3
I8
I520
g3
g4
tp303
a(I3
I11
I250
g3
g10
tp304
a(I3
I9
I430
g3
g4
tp305
asS'04_10_0004'
p306
(lp307
(I3
I4
I415
g3
g4
tp308
asS'04_10_0007'
p309
(lp310
(I0
I6
I495
g7
g10
tp311
a(I3
I13
I500
g7
g10
tp312
asS'04_10_0006'
p313
(lp314
(I1
I3
I270
g3
g68
tp315
a(I3
I16
I175
g3
g68
tp316
asS'04_10_0000'
p317
(lp318
(I0
I10
I475
g7
g10
tp319
a(I1
I9
I400
g3
g10
tp320
a(I3
I19
I445
g3
g4
tp321
a(I0
I12
I385
g3
g10
tp322
asS'04_10_0003'
p323
(lp324
(I0
I1
I450
g7
g10
tp325
a(I0
I4
I250
g7
g4
tp326
asS'04_10_0002'
p327
(lp328
(I0
I9
I325
g7
g4
tp329
a(I0
I16
I235
g3
g4
tp330
a(I0
I5
I300
g3
g10
tp331
a(I0
I22
I290
g3
g10
tp332
a(I0
I26
I170
g7
g10
tp333
a(I1
I42
I510
g7
g4
tp334
a(I1
I30
I190
g3
g10
tp335
a(I1
I23
I525
g3
g4
tp336
a(I2
I17
I170
g3
g4
tp337
a(I2
I16
I250
g3
g10
tp338
a(I2
I19
I460
g3
g4
tp339
a(I2
I25
I170
g3
tp340
a(I3
I31
I530
g7
g4
tp341
a(I3
I24
I250
g3
g4
tp342
a(I3
I22
I335
g7
g4
tp343
a(I0
I15
I416
g3
g4
tp344
a(I0
I21
I170
g3
g4
tp345
a(I0
I25
I300
g3
g4
tp346
a(I1
I34
I475
g3
g4
tp347
a(I1
I30
I180
g3
g4
tp348
a(I1
I24
I300
g7
g4
tp349
a(I1
I21
I230
g7
g4
tp350
a(I1
I6
I500
g3
g4
tp351
a(I1
I8
I220
g3
g4
tp352
a(I1
I9
I250
g3
g4
tp353
a(I1
I12
I330
g7
g4
tp354
a(I2
I12
I170
g3
tp355
a(I1
I18
I340
g3
g4
tp356
a(I2
I28
I315
g3
tp357
a(I2
I33
I320
g3
g4
tp358
a(I3
I42
I315
g3
g4
tp359
a(I3
I32
I120
g3
g4
tp360
a(I3
I20
I540
g3
g4
tp361
as.