(dp0
S'05_06_0006'
p1
(lp2
(I2
I5
I330
S'L'
p3
S'A'
p4
tp5
a(I2
I29
I380
g3
g4
tp6
a(I0
I12
I25
S'R'
p7
g4
tp8
a(I2
I13
I260
g7
g4
tp9
a(I3
I17
I290
g3
S'B'
p10
tp11
a(I0
I13
I530
g7
g4
tp12
a(I3
I14
I165
g7
g4
tp13
a(I2
I6
I250
g7
g4
tp14
a(I0
I4
I90
g7
g4
tp15
a(I2
I5
I285
g3
g4
tp16
asS'05_08_0011'
p17
(lp18
(I0
I2
I340
g3
g4
tp19
a(I0
I5
I530
g7
g4
tp20
a(I1
I3
I550
g7
g4
tp21
a(I1
I5
I240
g3
g4
tp22
a(I2
I2
I330
g3
g4
tp23
a(I1
I7
I460
g7
g4
tp24
a(I1
I12
I560
g7
g4
tp25
a(I2
I10
I440
g3
g4
tp26
a(I2
I11
I100
g7
g4
tp27
a(I3
I14
I145
g3
g4
tp28
a(I0
I16
I520
g3
g4
tp29
a(I1
I19
I560
g7
g4
tp30
a(I2
I17
I215
g3
g4
tp31
asS'05_05_0005'
p32
(lp33
(I0
I0
I230
g7
g4
tp34
a(I0
I2
I200
g7
g4
tp35
a(I0
I12
I460
g3
g4
tp36
a(I0
I16
I180
g7
g4
tp37
a(I0
I28
I60
g7
g4
tp38
a(I0
I33
I165
g7
g4
tp39
a(I1
I33
I110
g3
g4
tp40
a(I1
I30
I400
g3
g4
tp41
a(I1
I29
I190
g7
g4
tp42
a(I1
I19
I130
g3
g4
tp43
a(I1
I6
I100
g3
g4
tp44
a(I2
I4
I430
g7
g4
tp45
a(I2
I5
I310
g7
g4
tp46
a(I2
I32
I220
g3
g4
tp47
a(I2
I29
I100
g3
g4
tp48
a(I2
I32
I190
g3
g4
tp49
a(I2
I35
I225
g3
g4
tp50
a(I2
I36
I265
g7
S'C'
p51
tp52
a(I3
I35
I290
g7
g51
tp53
a(I3
I33
I300
g7
g4
tp54
a(I3
I10
I75
g7
g4
tp55
a(I3
I4
I275
g3
g10
tp56
asS'05_12_0015'
p57
(lp58
(I3
I5
I255
g3
g10
tp59
a(I3
I9
I230
g7
g10
tp60
a(I1
I12
I410
g3
g4
tp61
a(I2
I16
I200
g3
g4
tp62
asS'05_12_0016'
p63
(lp64
(I1
I2
I280
g7
g4
tp65
asS'04_22_0008'
p66
(lp67
(I1
I2
I200
g7
g10
tp68
a(I3
I2
I200
g3
g10
tp69
a(I1
I3
I130
g3
g10
tp70
a(I0
I17
I100
g3
g4
tp71
a(I1
I19
I140
g3
g4
tp72
a(I3
I10
I280
g7
g4
tp73
a(I2
I30
I440
g7
g4
tp74
asS'04_22_0009'
p75
(lp76
(I2
I11
I585
g3
g10
tp77
a(I3
I14
I445
g3
g10
tp78
asS'04_22_0005'
p79
(lp80
(I0
I6
I110
g7
g4
tp81
a(I2
I2
I160
g7
g4
tp82
a(I3
I3
I230
g3
g4
tp83
a(I0
I16
I535
g7
g4
tp84
a(I3
I16
I160
g3
g10
tp85
asS'05_12_0018'
p86
(lp87
(I1
I18
I200
g3
g10
tp88
a(I3
I19
I375
g3
g4
tp89
a(I2
I8
I460
g7
g10
tp90
a(I1
I7
I290
g3
g10
tp91
asS'03_30_0000'
p92
(lp93
(I0
I24
I300
g7
g4
tp94
a(I1
I21
I400
g3
g51
tp95
a(I1
I30
I300
g7
g4
tp96
a(I2
I21
I400
g3
g10
tp97
a(I2
I32
I300
g7
g4
tp98
a(I3
I4
I400
g3
g4
tp99
a(I3
I6
I425
g3
g10
tp100
a(I3
I8
I200
g7
g4
tp101
a(I3
I12
I100
g7
g4
tp102
asS'03_30_0001'
p103
(lp104
(I0
I43
I325
g7
g4
tp105
a(I1
I42
I460
g3
g4
tp106
a(I2
I41
I200
g3
g4
tp107
a(I3
I2
I300
g7
g4
tp108
asS'05_08_0009'
p109
(lp110
(I0
I13
I500
g3
g4
tp111
a(I0
I8
I440
g3
g4
tp112
a(I1
I7
I325
g7
g4
tp113
a(I2
I15
I185
g7
g4
tp114
a(I1
I15
I250
g7
g4
tp115
a(I3
I9
I185
g7
g4
tp116
a(I3
I13
I415
g7
g4
tp117
a(I3
I14
I250
g3
g4
tp118
a(I3
I15
I315
g3
g4
tp119
a(I3
I18
I300
g3
g4
tp120
a(I0
I17
I175
g3
g4
tp121
a(I0
I18
I220
g3
g4
tp122
asS'05_08_0008'
p123
(lp124
(I1
I13
I215
g3
g10
tp125
a(I2
I10
I130
g3
g10
tp126
a(I1
I19
I375
g3
g10
tp127
asS'05_08_0005'
p128
(lp129
(I1
I1
I70
g3
g4
tp130
a(I3
I2
I120
g3
g4
tp131
a(I0
I11
I175
g3
g4
tp132
a(I2
I13
I475
g3
g4
tp133
a(I2
I22
I200
g7
g10
tp134
a(I0
I28
I220
g3
g4
tp135
a(I0
I32
I240
g3
g4
tp136
asS'05_08_0004'
p137
(lp138
(I0
I4
I460
g7
g10
tp139
a(I3
I17
I430
g7
g10
tp140
a(I2
I15
I200
g3
g10
tp141
a(I0
I12
I400
g7
g10
tp142
a(I1
I11
I280
g3
g10
tp143
a(I1
I11
I410
g3
g4
tp144
a(I1
I1
I420
g3
g4
tp145
asS'05_08_0006'
p146
(lp147
(I2
I9
I580
g3
g10
tp148
asS'05_08_0001'
p149
(lp150
(I0
I4
I40
g3
g4
tp151
a(I1
I2
I165
g3
g4
tp152
a(I3
I16
I260
g3
g10
tp153
a(I0
I15
I280
g7
g4
tp154
a(I3
I2
I400
g3
g10
tp155
a(I1
I16
I415
g3
g4
tp156
asS'05_08_0003'
p157
(lp158
(I1
I7
I255
g7
g4
tp159
a(I2
I14
I250
g7
g4
tp160
asS'04_01_0002'
p161
(lp162
(I0
I23
I550
g3
g4
tp163
a(I1
I1
I410
g3
g4
tp164
a(I1
I10
I500
g7
g4
tp165
a(I2
I0
I380
g7
g4
tp166
a(I2
I27
I360
g3
g4
tp167
a(I3
I5
I300
g3
g4
tp168
a(I3
I10
I450
g3
g4
tp169
a(I3
I29
I480
g7
g4
tp170
asS'04_01_0001'
p171
(lp172
(I0
I9
I325
g7
g4
tp173
a(I0
I25
I550
g3
g4
tp174
a(I1
I9
I175
g3
g4
tp175
a(I1
I11
I150
g7
g4
tp176
a(I1
I24
I535
g3
g4
tp177
a(I2
I10
I500
g7
g4
tp178
asS'05_06_0008'
p179
(lp180
(I0
I13
I280
g3
g4
tp181
a(I1
I19
I135
g3
g4
tp182
a(I1
I1
I210
g7
g4
tp183
a(I2
I0
I330
g3
g4
tp184
a(I3
I9
I120
g7
g4
tp185
a(I3
I14
I250
g3
g4
tp186
a(I2
I11
I200
g3
g4
tp187
a(I1
I14
I455
g7
g4
tp188
asS'04_22_0012'
p189
(lp190
(I1
I5
I335
g3
g4
tp191
a(I0
I9
I460
g3
g10
tp192
a(I1
I12
I185
g3
g4
tp193
a(I3
I3
I475
g7
g4
tp194
asS'04_22_0011'
p195
(lp196
(I0
I17
I100
g3
g10
tp197
a(I3
I19
I345
g7
g4
tp198
asS'04_22_0010'
p199
(lp200
(I0
I6
I100
g3
g10
tp201
a(I0
I7
I100
g3
g51
tp202
a(I0
I13
I240
g7
g10
tp203
a(I1
I2
I450
g3
g10
tp204
a(I2
I15
I330
g3
g10
tp205
a(I2
I24
I425
g7
g4
tp206
a(I1
I20
I400
g3
g4
tp207
a(I2
I20
I190
g3
g4
tp208
a(I1
I21
I500
g3
g4
tp209
a(I3
I22
I415
g3
g4
tp210
a(I0
I32
I380
g3
g4
tp211
a(I0
I34
I350
g3
g4
tp212
a(I2
I36
I500
g3
g4
tp213
a(I3
I38
I360
g3
g4
tp214
a(I1
I33
I50
g3
g10
tp215
asS'05_05_0003'
p216
(lp217
(I0
I3
I130
g3
g4
tp218
a(I1
I0
I400
g3
g4
tp219
a(I1
I5
I45
g3
g4
tp220
a(I2
I3
I370
g3
g4
tp221
a(I3
I3
I310
g3
g4
tp222
a(I2
I8
I310
g3
g4
tp223
a(I2
I14
I340
g7
g4
tp224
a(I2
I16
I465
g3
g4
tp225
a(I3
I14
I235
g3
g4
tp226
a(I0
I19
I175
g7
g4
tp227
a(I0
I19
I105
g7
g4
tp228
a(I2
I19
I105
g7
g4
tp229
a(I0
I13
I50
g7
g10
tp230
a(I1
I12
I60
g3
g10
tp231
a(I1
I15
I100
g3
g10
tp232
a(I1
I16
I100
g3
g10
tp233
a(I3
I18
I180
g7
g10
tp234
a(I2
I9
I50
g3
g10
tp235
a(I2
I7
I140
g3
g10
tp236
a(I1
I7
I50
g3
g10
tp237
asS'04_16_0002'
p238
(lp239
(I0
I3
I430
g7
g4
tp240
a(I0
I24
I450
g3
g10
tp241
a(I1
I10
I585
g3
g4
tp242
a(I1
I14
I125
g7
g4
tp243
a(I1
I19
I500
g3
g4
tp244
a(I1
I21
I280
g7
g10
tp245
a(I2
I17
I320
g7
g4
tp246
a(I2
I13
I485
g7
g4
tp247
a(I3
I22
I425
g7
g4
tp248
asS'04_16_0000'
p249
(lp250
(I2
I10
I540
g7
g4
tp251
asS'05_11_0003'
p252
(lp253
(I1
I7
I290
g7
g4
tp254
a(I2
I16
I560
g3
g4
tp255
a(I3
I18
I260
g7
g4
tp256
asS'05_11_0007'
p257
(lp258
(I0
I4
I415
g7
g4
tp259
a(I2
I2
I315
g7
g4
tp260
a(I0
I3
I235
g7
g4
tp261
a(I1
I4
I415
g7
g4
tp262
a(I1
I9
I160
g7
g4
tp263
a(I3
I12
I430
g7
g4
tp264
a(I3
I13
I170
g3
g4
tp265
a(I3
I14
I200
g3
g4
tp266
a(I0
I19
I285
g7
g4
tp267
a(I3
I17
I400
g7
g4
tp268
asS'05_11_0005'
p269
(lp270
(I0
I0
I350
S'L'
p271
S'B'
p272
tp273
a(I0
I1
I380
g271
g272
tp274
a(I1
I3
I150
g271
g272
tp275
a(I1
I7
I250
g271
S'A'
p276
tp277
a(I3
I2
I65
g271
g276
tp278
a(I3
I4
I125
S'R'
p279
g276
tp280
a(I2
I5
I600
g271
g276
tp281
a(I0
I11
I260
g271
g276
tp282
a(I2
I8
I385
g271
g276
tp283
a(I3
I8
I300
g271
g276
tp284
a(I0
I14
I230
g271
g276
tp285
a(I0
I19
I400
g271
g276
tp286
a(I1
I19
I400
g271
g272
tp287
a(I2
I19
I440
g279
g272
tp288
a(I2
I21
I79
g279
g272
tp289
a(I1
I23
I465
g279
g276
tp290
asS'05_11_0004'
p291
(lp292
(I3
I1
I350
g7
g4
tp293
a(I3
I9
I400
g3
g4
tp294
a(I0
I23
I180
g7
g4
tp295
a(I0
I28
I285
g7
g4
tp296
a(I1
I23
I210
g3
g10
tp297
asS'04_10_0005'
p298
(lp299
(I0
I1
I200
g3
g4
tp300
a(I0
I9
I380
g7
g4
tp301
a(I0
I11
I200
g7
g4
tp302
a(I2
I11
I115
g3
g4
tp303
a(I3
I4
I500
g7
g4
tp304
a(I3
I3
I475
g7
g10
tp305
a(I3
I8
I520
g3
g4
tp306
a(I3
I11
I250
g3
g10
tp307
a(I3
I9
I430
g3
g4
tp308
asS'04_10_0004'
p309
(lp310
(I3
I4
I415
g3
g4
tp311
asS'04_10_0007'
p312
(lp313
(I0
I6
I495
g7
g10
tp314
a(I3
I13
I500
g7
g10
tp315
asS'04_10_0006'
p316
(lp317
(I1
I3
I270
g3
g51
tp318
a(I3
I16
I175
g3
g51
tp319
asS'04_10_0000'
p320
(lp321
(I0
I10
I475
g7
g10
tp322
a(I1
I9
I400
g3
g10
tp323
a(I3
I19
I445
g3
g4
tp324
a(I0
I12
I385
g3
g10
tp325
asS'04_10_0003'
p326
(lp327
(I0
I1
I450
g7
g10
tp328
a(I0
I4
I250
g7
g4
tp329
asS'04_10_0002'
p330
(lp331
(I0
I9
I325
g7
g4
tp332
a(I0
I16
I235
g3
g4
tp333
a(I0
I5
I300
g3
g10
tp334
a(I0
I22
I290
g3
g10
tp335
a(I0
I26
I170
g7
g10
tp336
a(I1
I42
I510
g7
g4
tp337
a(I1
I30
I190
g3
g10
tp338
a(I1
I23
I525
g3
g4
tp339
a(I2
I17
I170
g3
g4
tp340
a(I2
I16
I250
g3
g10
tp341
a(I2
I19
I460
g3
g4
tp342
a(I2
I25
I170
g3
tp343
a(I3
I31
I530
g7
g4
tp344
a(I3
I24
I250
g3
g4
tp345
a(I3
I22
I335
g7
g4
tp346
a(I0
I15
I416
g3
g4
tp347
a(I0
I21
I170
g3
g4
tp348
a(I0
I25
I300
g3
g4
tp349
a(I1
I34
I475
g3
g4
tp350
a(I1
I30
I180
g3
g4
tp351
a(I1
I24
I300
g7
g4
tp352
a(I1
I21
I230
g7
g4
tp353
a(I1
I6
I500
g3
g4
tp354
a(I1
I8
I220
g3
g4
tp355
a(I1
I9
I250
g3
g4
tp356
a(I1
I12
I330
g7
g4
tp357
a(I2
I12
I170
g3
tp358
a(I1
I18
I340
g3
g4
tp359
a(I2
I28
I315
g3
tp360
a(I2
I33
I320
g3
g4
tp361
a(I3
I42
I315
g3
g4
tp362
a(I3
I32
I120
g3
g4
tp363
a(I3
I20
I540
g3
g4
tp364
as.